; ModuleID = '21/391.cpp'
source_filename = "21/391.cpp"
target datalayout = "e-m:e-p270:32:32-p271:32:32-p272:64:64-i64:64-f80:128-n8:16:32:64-S128"
target triple = "x86_64-pc-linux-gnu"

%"class.std::ios_base::Init" = type { i8 }
%"class.std::basic_istream" = type { i32 (...)**, i64, %"class.std::basic_ios" }
%"class.std::basic_ios" = type { %"class.std::ios_base", %"class.std::basic_ostream"*, i8, i8, %"class.std::basic_streambuf"*, %"class.std::ctype"*, %"class.std::num_put"*, %"class.std::num_get"* }
%"class.std::ios_base" = type { i32 (...)**, i64, i64, i32, i32, i32, %"struct.std::ios_base::_Callback_list"*, %"struct.std::ios_base::_Words", [8 x %"struct.std::ios_base::_Words"], i32, %"struct.std::ios_base::_Words"*, %"class.std::locale" }
%"struct.std::ios_base::_Callback_list" = type { %"struct.std::ios_base::_Callback_list"*, void (i32, %"class.std::ios_base"*, i32)*, i32, i32 }
%"struct.std::ios_base::_Words" = type { i8*, i64 }
%"class.std::locale" = type { %"class.std::locale::_Impl"* }
%"class.std::locale::_Impl" = type { i32, %"class.std::locale::facet"**, i64, %"class.std::locale::facet"**, i8** }
%"class.std::locale::facet" = type <{ i32 (...)**, i32, [4 x i8] }>
%"class.std::basic_ostream" = type { i32 (...)**, %"class.std::basic_ios" }
%"class.std::basic_streambuf" = type { i32 (...)**, i8*, i8*, i8*, i8*, i8*, i8*, %"class.std::locale" }
%"class.std::ctype" = type <{ %"class.std::locale::facet.base", [4 x i8], %struct.__locale_struct*, i8, [7 x i8], i32*, i32*, i16*, i8, [256 x i8], [256 x i8], i8, [6 x i8] }>
%"class.std::locale::facet.base" = type <{ i32 (...)**, i32 }>
%struct.__locale_struct = type { [13 x %struct.__locale_data*], i16*, i32*, i32*, [13 x i8*] }
%struct.__locale_data = type opaque
%"class.std::num_put" = type { %"class.std::locale::facet.base", [4 x i8] }
%"class.std::num_get" = type { %"class.std::locale::facet.base", [4 x i8] }

@_ZStL8__ioinit = internal global %"class.std::ios_base::Init" zeroinitializer, align 1
@__dso_handle = external hidden global i8
@_ZSt3cin = external dso_local global %"class.std::basic_istream", align 8
@_ZSt4cout = external dso_local global %"class.std::basic_ostream", align 8
@llvm.global_ctors = appending global [1 x { i32, void ()*, i8* }] [{ i32, void ()*, i8* } { i32 65535, void ()* @_GLOBAL__sub_I_391.cpp, i8* null }]

; Function Attrs: noinline uwtable
define internal void @__cxx_global_var_init() #0 section ".text.startup" {
  call void @_ZNSt8ios_base4InitC1Ev(%"class.std::ios_base::Init"* @_ZStL8__ioinit)
  %1 = call i32 @__cxa_atexit(void (i8*)* bitcast (void (%"class.std::ios_base::Init"*)* @_ZNSt8ios_base4InitD1Ev to void (i8*)*), i8* getelementptr inbounds (%"class.std::ios_base::Init", %"class.std::ios_base::Init"* @_ZStL8__ioinit, i32 0, i32 0), i8* @__dso_handle) #3
  ret void
}

declare dso_local void @_ZNSt8ios_base4InitC1Ev(%"class.std::ios_base::Init"*) unnamed_addr #1

; Function Attrs: nounwind
declare dso_local void @_ZNSt8ios_base4InitD1Ev(%"class.std::ios_base::Init"*) unnamed_addr #2

; Function Attrs: nounwind
declare dso_local i32 @__cxa_atexit(void (i8*)*, i8*, i8*) #3

; Function Attrs: noinline norecurse uwtable
define dso_local i32 @main() #4 {
  %1 = alloca i32, align 4
  %2 = alloca i32, align 4
  %3 = alloca [300 x i32], align 16
  %4 = alloca i32, align 4
  %5 = alloca i32, align 4
  %6 = alloca double, align 8
  %7 = alloca double, align 8
  %8 = alloca double, align 8
  store i32 0, i32* %1, align 4
  store i32 0, i32* %4, align 4
  store double 0.000000e+00, double* %7, align 8
  store double 0.000000e+00, double* %8, align 8
  %9 = call dereferenceable(280) %"class.std::basic_istream"* @_ZNSirsERi(%"class.std::basic_istream"* @_ZSt3cin, i32* dereferenceable(4) %2)
  store i32 0, i32* %5, align 4
  br label %10

10:                                               ; preds = %26, %0
  %11 = load i32, i32* %5, align 4
  %12 = load i32, i32* %2, align 4
  %13 = icmp slt i32 %11, %12
  br i1 %13, label %14, label %29

14:                                               ; preds = %10
  %15 = load i32, i32* %5, align 4
  %16 = sext i32 %15 to i64
  %17 = getelementptr inbounds [300 x i32], [300 x i32]* %3, i64 0, i64 %16
  %18 = call dereferenceable(280) %"class.std::basic_istream"* @_ZNSirsERi(%"class.std::basic_istream"* @_ZSt3cin, i32* dereferenceable(4) %17)
  %19 = load i32, i32* %5, align 4
  %20 = sext i32 %19 to i64
  %21 = getelementptr inbounds [300 x i32], [300 x i32]* %3, i64 0, i64 %20
  %22 = load i32, i32* %21, align 4
  %23 = sitofp i32 %22 to double
  %24 = load double, double* %7, align 8
  %25 = fadd double %24, %23
  store double %25, double* %7, align 8
  br label %26

26:                                               ; preds = %14
  %27 = load i32, i32* %5, align 4
  %28 = add nsw i32 %27, 1
  store i32 %28, i32* %5, align 4
  br label %10

29:                                               ; preds = %10
  %30 = load double, double* %7, align 8
  %31 = load i32, i32* %2, align 4
  %32 = sitofp i32 %31 to double
  %33 = fdiv double %30, %32
  store double %33, double* %6, align 8
  store i32 0, i32* %5, align 4
  br label %34

34:                                               ; preds = %60, %29
  %35 = load i32, i32* %5, align 4
  %36 = load i32, i32* %2, align 4
  %37 = icmp slt i32 %35, %36
  br i1 %37, label %38, label %63

38:                                               ; preds = %34
  %39 = load i32, i32* %5, align 4
  %40 = sext i32 %39 to i64
  %41 = getelementptr inbounds [300 x i32], [300 x i32]* %3, i64 0, i64 %40
  %42 = load i32, i32* %41, align 4
  %43 = sitofp i32 %42 to double
  %44 = load double, double* %6, align 8
  %45 = fsub double %43, %44
  %46 = call double @llvm.fabs.f64(double %45)
  %47 = load double, double* %8, align 8
  %48 = fsub double %46, %47
  %49 = fcmp ogt double %48, 1.000000e-05
  br i1 %49, label %50, label %59

50:                                               ; preds = %38
  %51 = load i32, i32* %5, align 4
  %52 = sext i32 %51 to i64
  %53 = getelementptr inbounds [300 x i32], [300 x i32]* %3, i64 0, i64 %52
  %54 = load i32, i32* %53, align 4
  %55 = sitofp i32 %54 to double
  %56 = load double, double* %6, align 8
  %57 = fsub double %55, %56
  %58 = call double @llvm.fabs.f64(double %57)
  store double %58, double* %8, align 8
  br label %59

59:                                               ; preds = %50, %38
  br label %60

60:                                               ; preds = %59
  %61 = load i32, i32* %5, align 4
  %62 = add nsw i32 %61, 1
  store i32 %62, i32* %5, align 4
  br label %34

63:                                               ; preds = %34
  store i32 0, i32* %5, align 4
  br label %64

64:                                               ; preds = %115, %63
  %65 = load i32, i32* %5, align 4
  %66 = load i32, i32* %2, align 4
  %67 = icmp slt i32 %65, %66
  br i1 %67, label %68, label %118

68:                                               ; preds = %64
  %69 = load i32, i32* %5, align 4
  %70 = sext i32 %69 to i64
  %71 = getelementptr inbounds [300 x i32], [300 x i32]* %3, i64 0, i64 %70
  %72 = load i32, i32* %71, align 4
  %73 = sitofp i32 %72 to double
  %74 = load double, double* %6, align 8
  %75 = fsub double %73, %74
  %76 = call double @llvm.fabs.f64(double %75)
  %77 = load double, double* %8, align 8
  %78 = fsub double %76, %77
  %79 = call double @llvm.fabs.f64(double %78)
  %80 = fcmp olt double %79, 1.000000e-05
  br i1 %80, label %81, label %90

81:                                               ; preds = %68
  %82 = load i32, i32* %4, align 4
  %83 = icmp eq i32 %82, 0
  br i1 %83, label %84, label %90

84:                                               ; preds = %81
  %85 = load i32, i32* %5, align 4
  %86 = sext i32 %85 to i64
  %87 = getelementptr inbounds [300 x i32], [300 x i32]* %3, i64 0, i64 %86
  %88 = load i32, i32* %87, align 4
  %89 = call dereferenceable(272) %"class.std::basic_ostream"* @_ZNSolsEi(%"class.std::basic_ostream"* @_ZSt4cout, i32 %88)
  store i32 1, i32* %4, align 4
  br label %114

90:                                               ; preds = %81, %68
  %91 = load i32, i32* %5, align 4
  %92 = sext i32 %91 to i64
  %93 = getelementptr inbounds [300 x i32], [300 x i32]* %3, i64 0, i64 %92
  %94 = load i32, i32* %93, align 4
  %95 = sitofp i32 %94 to double
  %96 = load double, double* %6, align 8
  %97 = fsub double %95, %96
  %98 = call double @llvm.fabs.f64(double %97)
  %99 = load double, double* %8, align 8
  %100 = fsub double %98, %99
  %101 = call double @llvm.fabs.f64(double %100)
  %102 = fcmp olt double %101, 1.000000e-05
  br i1 %102, label %103, label %113

103:                                              ; preds = %90
  %104 = load i32, i32* %4, align 4
  %105 = icmp eq i32 %104, 1
  br i1 %105, label %106, label %113

106:                                              ; preds = %103
  %107 = call dereferenceable(272) %"class.std::basic_ostream"* @_ZStlsISt11char_traitsIcEERSt13basic_ostreamIcT_ES5_c(%"class.std::basic_ostream"* dereferenceable(272) @_ZSt4cout, i8 signext 44)
  %108 = load i32, i32* %5, align 4
  %109 = sext i32 %108 to i64
  %110 = getelementptr inbounds [300 x i32], [300 x i32]* %3, i64 0, i64 %109
  %111 = load i32, i32* %110, align 4
  %112 = call dereferenceable(272) %"class.std::basic_ostream"* @_ZNSolsEi(%"class.std::basic_ostream"* %107, i32 %111)
  br label %113

113:                                              ; preds = %106, %103, %90
  br label %114

114:                                              ; preds = %113, %84
  br label %115

115:                                              ; preds = %114
  %116 = load i32, i32* %5, align 4
  %117 = add nsw i32 %116, 1
  store i32 %117, i32* %5, align 4
  br label %64

118:                                              ; preds = %64
  ret i32 0
}

declare dso_local dereferenceable(280) %"class.std::basic_istream"* @_ZNSirsERi(%"class.std::basic_istream"*, i32* dereferenceable(4)) #1

; Function Attrs: nounwind readnone speculatable willreturn
declare double @llvm.fabs.f64(double) #5

declare dso_local dereferenceable(272) %"class.std::basic_ostream"* @_ZNSolsEi(%"class.std::basic_ostream"*, i32) #1

declare dso_local dereferenceable(272) %"class.std::basic_ostream"* @_ZStlsISt11char_traitsIcEERSt13basic_ostreamIcT_ES5_c(%"class.std::basic_ostream"* dereferenceable(272), i8 signext) #1

; Function Attrs: noinline uwtable
define internal void @_GLOBAL__sub_I_391.cpp() #0 section ".text.startup" {
  call void @__cxx_global_var_init()
  ret void
}


!llvm.module.flags = !{!0}
!llvm.ident = !{!1}

!0 = !{i32 1, !"wchar_size", i32 4}
!1 = !{!"clang version 10.0.0-4ubuntu1 "}
