; ModuleID = 'source-C-CXX/20/391.cpp'
source_filename = "source-C-CXX/20/391.cpp"
target datalayout = "e-m:e-p270:32:32-p271:32:32-p272:64:64-i64:64-f80:128-n8:16:32:64-S128"
target triple = "x86_64-pc-linux-gnu"

%"class.std::ios_base::Init" = type { i8 }
%"class.std::basic_istream" = type { i32 (...)**, i64, %"class.std::basic_ios" }
%"class.std::basic_ios" = type { %"class.std::ios_base", %"class.std::basic_ostream"*, i8, i8, %"class.std::basic_streambuf"*, %"class.std::ctype"*, %"class.std::num_put"*, %"class.std::num_get"* }
%"class.std::ios_base" = type { i32 (...)**, i64, i64, i32, i32, i32, %"struct.std::ios_base::_Callback_list"*, %"struct.std::ios_base::_Words", [8 x %"struct.std::ios_base::_Words"], i32, %"struct.std::ios_base::_Words"*, %"class.std::locale" }
%"struct.std::ios_base::_Callback_list" = type { %"struct.std::ios_base::_Callback_list"*, void (i32, %"class.std::ios_base"*, i32)*, i32, i32 }
%"struct.std::ios_base::_Words" = type { i8*, i64 }
%"class.std::locale" = type { %"class.std::locale::_Impl"* }
%"class.std::locale::_Impl" = type { i32, %"class.std::locale::facet"**, i64, %"class.std::locale::facet"**, i8** }
%"class.std::locale::facet" = type <{ i32 (...)**, i32, [4 x i8] }>
%"class.std::basic_ostream" = type { i32 (...)**, %"class.std::basic_ios" }
%"class.std::basic_streambuf" = type { i32 (...)**, i8*, i8*, i8*, i8*, i8*, i8*, %"class.std::locale" }
%"class.std::ctype" = type <{ %"class.std::locale::facet.base", [4 x i8], %struct.__locale_struct*, i8, [7 x i8], i32*, i32*, i16*, i8, [256 x i8], [256 x i8], i8, [6 x i8] }>
%"class.std::locale::facet.base" = type <{ i32 (...)**, i32 }>
%struct.__locale_struct = type { [13 x %struct.__locale_data*], i16*, i32*, i32*, [13 x i8*] }
%struct.__locale_data = type opaque
%"class.std::num_put" = type { %"class.std::locale::facet.base", [4 x i8] }
%"class.std::num_get" = type { %"class.std::locale::facet.base", [4 x i8] }

@_ZStL8__ioinit = internal global %"class.std::ios_base::Init" zeroinitializer, align 1
@__dso_handle = external hidden global i8
@_ZSt3cin = external global %"class.std::basic_istream", align 8
@_ZSt4cout = external global %"class.std::basic_ostream", align 8
@llvm.global_ctors = appending global [1 x { i32, void ()*, i8* }] [{ i32, void ()*, i8* } { i32 65535, void ()* @_GLOBAL__sub_I_391.cpp, i8* null }]

declare void @_ZNSt8ios_base4InitC1Ev(%"class.std::ios_base::Init"* nonnull align 1 dereferenceable(1)) unnamed_addr #0

; Function Attrs: nounwind
declare void @_ZNSt8ios_base4InitD1Ev(%"class.std::ios_base::Init"* nonnull align 1 dereferenceable(1)) unnamed_addr #1

; Function Attrs: nofree nounwind
declare i32 @__cxa_atexit(void (i8*)*, i8*, i8*) local_unnamed_addr #2

; Function Attrs: mustprogress norecurse sspstrong uwtable
define dso_local i32 @main() local_unnamed_addr #3 {
  %1 = alloca i8, align 1
  %2 = alloca i32, align 4
  %3 = alloca [300 x i32], align 16
  %4 = bitcast i32* %2 to i8*
  call void @llvm.lifetime.start.p0i8(i64 4, i8* nonnull %4) #7
  %5 = bitcast [300 x i32]* %3 to i8*
  call void @llvm.lifetime.start.p0i8(i64 1200, i8* nonnull %5) #7
  %6 = call nonnull align 8 dereferenceable(16) %"class.std::basic_istream"* @_ZNSirsERi(%"class.std::basic_istream"* nonnull align 8 dereferenceable(16) @_ZSt3cin, i32* nonnull align 4 dereferenceable(4) %2)
  %7 = load i32, i32* %2, align 4, !tbaa !5
  %8 = icmp sgt i32 %7, 0
  br i1 %8, label %9, label %99

9:                                                ; preds = %0, %9
  %10 = phi i64 [ %17, %9 ], [ 0, %0 ]
  %11 = phi double [ %16, %9 ], [ 0.000000e+00, %0 ]
  %12 = getelementptr inbounds [300 x i32], [300 x i32]* %3, i64 0, i64 %10
  %13 = call nonnull align 8 dereferenceable(16) %"class.std::basic_istream"* @_ZNSirsERi(%"class.std::basic_istream"* nonnull align 8 dereferenceable(16) @_ZSt3cin, i32* nonnull align 4 dereferenceable(4) %12)
  %14 = load i32, i32* %12, align 4, !tbaa !5
  %15 = sitofp i32 %14 to double
  %16 = fadd double %11, %15
  %17 = add nuw nsw i64 %10, 1
  %18 = load i32, i32* %2, align 4, !tbaa !5
  %19 = sext i32 %18 to i64
  %20 = icmp slt i64 %17, %19
  br i1 %20, label %9, label %21, !llvm.loop !9

21:                                               ; preds = %9
  %22 = sitofp i32 %18 to double
  %23 = fdiv double %16, %22
  %24 = icmp sgt i32 %18, 0
  br i1 %24, label %25, label %99

25:                                               ; preds = %21
  %26 = zext i32 %18 to i64
  %27 = and i64 %26, 1
  %28 = icmp eq i32 %18, 1
  br i1 %28, label %31, label %29

29:                                               ; preds = %25
  %30 = and i64 %26, 4294967294
  br label %47

31:                                               ; preds = %47, %25
  %32 = phi double [ undef, %25 ], [ %67, %47 ]
  %33 = phi i64 [ 0, %25 ], [ %68, %47 ]
  %34 = phi double [ 0.000000e+00, %25 ], [ %67, %47 ]
  %35 = icmp eq i64 %27, 0
  br i1 %35, label %45, label %36

36:                                               ; preds = %31
  %37 = getelementptr inbounds [300 x i32], [300 x i32]* %3, i64 0, i64 %33
  %38 = load i32, i32* %37, align 4, !tbaa !5
  %39 = sitofp i32 %38 to double
  %40 = fsub double %39, %23
  %41 = call double @llvm.fabs.f64(double %40)
  %42 = fsub double %41, %34
  %43 = fcmp ogt double %42, 1.000000e-05
  %44 = select i1 %43, double %41, double %34
  br label %45

45:                                               ; preds = %31, %36
  %46 = phi double [ %32, %31 ], [ %44, %36 ]
  br i1 %24, label %71, label %99

47:                                               ; preds = %47, %29
  %48 = phi i64 [ 0, %29 ], [ %68, %47 ]
  %49 = phi double [ 0.000000e+00, %29 ], [ %67, %47 ]
  %50 = phi i64 [ %30, %29 ], [ %69, %47 ]
  %51 = getelementptr inbounds [300 x i32], [300 x i32]* %3, i64 0, i64 %48
  %52 = load i32, i32* %51, align 8, !tbaa !5
  %53 = sitofp i32 %52 to double
  %54 = fsub double %53, %23
  %55 = call double @llvm.fabs.f64(double %54)
  %56 = fsub double %55, %49
  %57 = fcmp ogt double %56, 1.000000e-05
  %58 = select i1 %57, double %55, double %49
  %59 = or i64 %48, 1
  %60 = getelementptr inbounds [300 x i32], [300 x i32]* %3, i64 0, i64 %59
  %61 = load i32, i32* %60, align 4, !tbaa !5
  %62 = sitofp i32 %61 to double
  %63 = fsub double %62, %23
  %64 = call double @llvm.fabs.f64(double %63)
  %65 = fsub double %64, %58
  %66 = fcmp ogt double %65, 1.000000e-05
  %67 = select i1 %66, double %64, double %58
  %68 = add nuw nsw i64 %48, 2
  %69 = add i64 %50, -2
  %70 = icmp eq i64 %69, 0
  br i1 %70, label %31, label %47, !llvm.loop !11

71:                                               ; preds = %45, %93
  %72 = phi i64 [ %95, %93 ], [ 0, %45 ]
  %73 = phi i32 [ %94, %93 ], [ 0, %45 ]
  %74 = getelementptr inbounds [300 x i32], [300 x i32]* %3, i64 0, i64 %72
  %75 = load i32, i32* %74, align 4, !tbaa !5
  %76 = sitofp i32 %75 to double
  %77 = fsub double %76, %23
  %78 = call double @llvm.fabs.f64(double %77)
  %79 = fsub double %78, %46
  %80 = call double @llvm.fabs.f64(double %79)
  %81 = fcmp olt double %80, 1.000000e-05
  %82 = icmp eq i32 %73, 0
  %83 = select i1 %81, i1 %82, i1 false
  br i1 %83, label %84, label %86

84:                                               ; preds = %71
  %85 = call nonnull align 8 dereferenceable(8) %"class.std::basic_ostream"* @_ZNSolsEi(%"class.std::basic_ostream"* nonnull align 8 dereferenceable(8) @_ZSt4cout, i32 %75)
  br label %93

86:                                               ; preds = %71
  %87 = icmp eq i32 %73, 1
  %88 = select i1 %81, i1 %87, i1 false
  br i1 %88, label %89, label %93

89:                                               ; preds = %86
  call void @llvm.lifetime.start.p0i8(i64 1, i8* nonnull %1)
  store i8 44, i8* %1, align 1, !tbaa !12
  %90 = call nonnull align 8 dereferenceable(8) %"class.std::basic_ostream"* @_ZSt16__ostream_insertIcSt11char_traitsIcEERSt13basic_ostreamIT_T0_ES6_PKS3_l(%"class.std::basic_ostream"* nonnull align 8 dereferenceable(8) @_ZSt4cout, i8* nonnull %1, i64 1)
  call void @llvm.lifetime.end.p0i8(i64 1, i8* nonnull %1)
  %91 = load i32, i32* %74, align 4, !tbaa !5
  %92 = call nonnull align 8 dereferenceable(8) %"class.std::basic_ostream"* @_ZNSolsEi(%"class.std::basic_ostream"* nonnull align 8 dereferenceable(8) %90, i32 %91)
  br label %93

93:                                               ; preds = %84, %89, %86
  %94 = phi i32 [ 1, %84 ], [ 1, %89 ], [ %73, %86 ]
  %95 = add nuw nsw i64 %72, 1
  %96 = load i32, i32* %2, align 4, !tbaa !5
  %97 = sext i32 %96 to i64
  %98 = icmp slt i64 %95, %97
  br i1 %98, label %71, label %99, !llvm.loop !13

99:                                               ; preds = %93, %0, %21, %45
  call void @llvm.lifetime.end.p0i8(i64 1200, i8* nonnull %5) #7
  call void @llvm.lifetime.end.p0i8(i64 4, i8* nonnull %4) #7
  ret i32 0
}

; Function Attrs: argmemonly mustprogress nofree nosync nounwind willreturn
declare void @llvm.lifetime.start.p0i8(i64 immarg, i8* nocapture) #4

declare nonnull align 8 dereferenceable(16) %"class.std::basic_istream"* @_ZNSirsERi(%"class.std::basic_istream"* nonnull align 8 dereferenceable(16), i32* nonnull align 4 dereferenceable(4)) local_unnamed_addr #0

; Function Attrs: mustprogress nofree nosync nounwind readnone speculatable willreturn
declare double @llvm.fabs.f64(double) #5

declare nonnull align 8 dereferenceable(8) %"class.std::basic_ostream"* @_ZNSolsEi(%"class.std::basic_ostream"* nonnull align 8 dereferenceable(8), i32) local_unnamed_addr #0

; Function Attrs: argmemonly mustprogress nofree nosync nounwind willreturn
declare void @llvm.lifetime.end.p0i8(i64 immarg, i8* nocapture) #4

declare nonnull align 8 dereferenceable(8) %"class.std::basic_ostream"* @_ZSt16__ostream_insertIcSt11char_traitsIcEERSt13basic_ostreamIT_T0_ES6_PKS3_l(%"class.std::basic_ostream"* nonnull align 8 dereferenceable(8), i8*, i64) local_unnamed_addr #0

; Function Attrs: sspstrong uwtable
define internal void @_GLOBAL__sub_I_391.cpp() #6 section ".text.startup" {
  tail call void @_ZNSt8ios_base4InitC1Ev(%"class.std::ios_base::Init"* nonnull align 1 dereferenceable(1) @_ZStL8__ioinit)
  %1 = tail call i32 @__cxa_atexit(void (i8*)* bitcast (void (%"class.std::ios_base::Init"*)* @_ZNSt8ios_base4InitD1Ev to void (i8*)*), i8* getelementptr inbounds (%"class.std::ios_base::Init", %"class.std::ios_base::Init"* @_ZStL8__ioinit, i64 0, i32 0), i8* nonnull @__dso_handle) #7
  ret void
}


!llvm.module.flags = !{!0, !1, !2, !3}
!llvm.ident = !{!4}

!0 = !{i32 1, !"wchar_size", i32 4}
!1 = !{i32 7, !"PIC Level", i32 2}
!2 = !{i32 7, !"PIE Level", i32 2}
!3 = !{i32 7, !"uwtable", i32 1}
!4 = !{!"clang version 13.0.0"}
!5 = !{!6, !6, i64 0}
!6 = !{!"int", !7, i64 0}
!7 = !{!"omnipotent char", !8, i64 0}
!8 = !{!"Simple C++ TBAA"}
!9 = distinct !{!9, !10}
!10 = !{!"llvm.loop.mustprogress"}
!11 = distinct !{!11, !10}
!12 = !{!7, !7, i64 0}
!13 = distinct !{!13, !10}
